target datalayout = "e-m:e-p270:32:32-p271:32:32-p272:64:64-i64:64-i128:128-f80:128-n8:16:32:64-S128"
target triple = "x86_64-pc-linux-gnu"

%struct.check_vector = type { i64, i64, ptr, %union.pthread_mutex_t }
%union.pthread_mutex_t = type { %struct.__pthread_mutex_s }
%struct.__pthread_mutex_s = type { i32, i32, i32, i32, i32, i16, i16, %struct.__pthread_internal_list }
%struct.__pthread_internal_list = type { ptr, ptr }
%struct.attr_check = type { i32, i32, ptr, i32, ptr, ptr }
%struct.attr_stack = type { ptr, ptr, i64, i32, i32, ptr }

@.str.4 = private unnamed_addr constant [7 x i8] c"attr.c\00", align 1
@check_vector = internal global %struct.check_vector zeroinitializer, align 8
@.str.20 = private unnamed_addr constant [15 x i8] c"no entry found\00", align 1

; Function Attrs: nounwind uwtable
define internal void @drop_attr_stack(ptr noundef %0) #0 {
  %2 = alloca ptr, align 8
  %3 = alloca ptr, align 8
  store ptr %0, ptr %2, align 8, !tbaa !54
  br label %4

4:                                                ; preds = %8, %1
  %5 = load ptr, ptr %2, align 8, !tbaa !54
  %6 = load ptr, ptr %5, align 8, !tbaa !56
  %7 = icmp ne ptr %6, null
  br i1 %7, label %8, label %16

8:                                                ; preds = %4
  call void @llvm.lifetime.start.p0(i64 8, ptr %3) #11
  %9 = load ptr, ptr %2, align 8, !tbaa !54
  %10 = load ptr, ptr %9, align 8, !tbaa !56
  store ptr %10, ptr %3, align 8, !tbaa !56
  %11 = load ptr, ptr %3, align 8, !tbaa !56
  %12 = getelementptr inbounds nuw %struct.attr_stack, ptr %11, i32 0, i32 0
  %13 = load ptr, ptr %12, align 8, !tbaa !57
  %14 = load ptr, ptr %2, align 8, !tbaa !54
  store ptr %13, ptr %14, align 8, !tbaa !56
  %15 = load ptr, ptr %3, align 8, !tbaa !56
  call void @attr_stack_free(ptr noundef %15)
  call void @llvm.lifetime.end.p0(i64 8, ptr %3) #11
  br label %4, !llvm.loop !60

16:                                               ; preds = %4
  ret void
}

; Function Attrs: inlinehint nounwind uwtable
define internal void @vector_unlock() #5 {
  %1 = call i32 @pthread_mutex_unlock(ptr noundef getelementptr inbounds nuw (%struct.check_vector, ptr @check_vector, i32 0, i32 3)) #11
  ret void
}

; Function Attrs: inlinehint nounwind uwtable
define internal void @vector_lock() #5 {
  %1 = call i32 @pthread_mutex_lock(ptr noundef getelementptr inbounds nuw (%struct.check_vector, ptr @check_vector, i32 0, i32 3)) #11
  ret void
}

; Function Attrs: nounwind uwtable
define dso_local void @attr_check_clear(ptr noundef %0) #0 {
  %2 = alloca ptr, align 8
  store ptr %0, ptr %2, align 8, !tbaa !32
  br label %3

3:                                                ; preds = %1
  %4 = load ptr, ptr %2, align 8, !tbaa !32
  %5 = getelementptr inbounds nuw %struct.attr_check, ptr %4, i32 0, i32 2
  %6 = load ptr, ptr %5, align 8, !tbaa !46
  call void @free(ptr noundef %6) #11
  %7 = load ptr, ptr %2, align 8, !tbaa !32
  %8 = getelementptr inbounds nuw %struct.attr_check, ptr %7, i32 0, i32 2
  store ptr null, ptr %8, align 8, !tbaa !46
  br label %9

9:                                                ; preds = %3
  %10 = load ptr, ptr %2, align 8, !tbaa !32
  %11 = getelementptr inbounds nuw %struct.attr_check, ptr %10, i32 0, i32 1
  store i32 0, ptr %11, align 4, !tbaa !45
  %12 = load ptr, ptr %2, align 8, !tbaa !32
  %13 = getelementptr inbounds nuw %struct.attr_check, ptr %12, i32 0, i32 0
  store i32 0, ptr %13, align 8, !tbaa !40
  br label %14

14:                                               ; preds = %9
  %15 = load ptr, ptr %2, align 8, !tbaa !32
  %16 = getelementptr inbounds nuw %struct.attr_check, ptr %15, i32 0, i32 4
  %17 = load ptr, ptr %16, align 8, !tbaa !52
  call void @free(ptr noundef %17) #11
  %18 = load ptr, ptr %2, align 8, !tbaa !32
  %19 = getelementptr inbounds nuw %struct.attr_check, ptr %18, i32 0, i32 4
  store ptr null, ptr %19, align 8, !tbaa !52
  br label %20

20:                                               ; preds = %14
  %21 = load ptr, ptr %2, align 8, !tbaa !32
  %22 = getelementptr inbounds nuw %struct.attr_check, ptr %21, i32 0, i32 3
  store i32 0, ptr %22, align 8, !tbaa !53
  %23 = load ptr, ptr %2, align 8, !tbaa !32
  %24 = getelementptr inbounds nuw %struct.attr_check, ptr %23, i32 0, i32 5
  call void @drop_attr_stack(ptr noundef %24)
  ret void
}

; Function Attrs: nounwind uwtable
define internal void @check_vector_remove(ptr noundef %0) #0 {
  %2 = alloca ptr, align 8
  %3 = alloca i32, align 4
  store ptr %0, ptr %2, align 8, !tbaa !32
  call void @llvm.lifetime.start.p0(i64 4, ptr %3) #11
  call void @vector_lock()
  store i32 0, ptr %3, align 4, !tbaa !13
  br label %4

4:                                                ; preds = %19, %1
  %5 = load i32, ptr %3, align 4, !tbaa !13
  %6 = sext i32 %5 to i64
  %7 = load i64, ptr @check_vector, align 8, !tbaa !34
  %8 = icmp ult i64 %6, %7
  br i1 %8, label %9, label %22

9:                                                ; preds = %4
  %10 = load ptr, ptr getelementptr inbounds nuw (%struct.check_vector, ptr @check_vector, i32 0, i32 2), align 8, !tbaa !38
  %11 = load i32, ptr %3, align 4, !tbaa !13
  %12 = sext i32 %11 to i64
  %13 = getelementptr inbounds ptr, ptr %10, i64 %12
  %14 = load ptr, ptr %13, align 8, !tbaa !32
  %15 = load ptr, ptr %2, align 8, !tbaa !32
  %16 = icmp eq ptr %14, %15
  br i1 %16, label %17, label %18

17:                                               ; preds = %9
  br label %22

18:                                               ; preds = %9
  br label %19

19:                                               ; preds = %18
  %20 = load i32, ptr %3, align 4, !tbaa !13
  %21 = add nsw i32 %20, 1
  store i32 %21, ptr %3, align 4, !tbaa !13
  br label %4, !llvm.loop !61

22:                                               ; preds = %17, %4
  %23 = load i32, ptr %3, align 4, !tbaa !13
  %24 = sext i32 %23 to i64
  %25 = load i64, ptr @check_vector, align 8, !tbaa !34
  %26 = icmp uge i64 %24, %25
  br i1 %26, label %27, label %28

27:                                               ; preds = %22
  call void (ptr, i32, ptr, ...) @BUG_fl(ptr noundef @.str.4, i32 noundef 514, ptr noundef @.str.20) #12
  unreachable

28:                                               ; preds = %22
  br label %29

29:                                               ; preds = %46, %28
  %30 = load i32, ptr %3, align 4, !tbaa !13
  %31 = sext i32 %30 to i64
  %32 = load i64, ptr @check_vector, align 8, !tbaa !34
  %33 = sub i64 %32, 1
  %34 = icmp ult i64 %31, %33
  br i1 %34, label %35, label %49

35:                                               ; preds = %29
  %36 = load ptr, ptr getelementptr inbounds nuw (%struct.check_vector, ptr @check_vector, i32 0, i32 2), align 8, !tbaa !38
  %37 = load i32, ptr %3, align 4, !tbaa !13
  %38 = add nsw i32 %37, 1
  %39 = sext i32 %38 to i64
  %40 = getelementptr inbounds ptr, ptr %36, i64 %39
  %41 = load ptr, ptr %40, align 8, !tbaa !32
  %42 = load ptr, ptr getelementptr inbounds nuw (%struct.check_vector, ptr @check_vector, i32 0, i32 2), align 8, !tbaa !38
  %43 = load i32, ptr %3, align 4, !tbaa !13
  %44 = sext i32 %43 to i64
  %45 = getelementptr inbounds ptr, ptr %42, i64 %44
  store ptr %41, ptr %45, align 8, !tbaa !32
  br label %46

46:                                               ; preds = %35
  %47 = load i32, ptr %3, align 4, !tbaa !13
  %48 = add nsw i32 %47, 1
  store i32 %48, ptr %3, align 4, !tbaa !13
  br label %29, !llvm.loop !62

49:                                               ; preds = %29
  %50 = load i64, ptr @check_vector, align 8, !tbaa !34
  %51 = add i64 %50, -1
  store i64 %51, ptr @check_vector, align 8, !tbaa !34
  call void @vector_unlock()
  call void @llvm.lifetime.end.p0(i64 4, ptr %3) #11
  ret void
}

; Function Attrs: nounwind uwtable
define dso_local void @attr_check_free(ptr noundef %0) #0 {
  %2 = alloca ptr, align 8
  store ptr %0, ptr %2, align 8, !tbaa !32
  %3 = load ptr, ptr %2, align 8, !tbaa !32
  %4 = icmp ne ptr %3, null
  br i1 %4, label %5, label %9

5:                                                ; preds = %1
  %6 = load ptr, ptr %2, align 8, !tbaa !32
  call void @check_vector_remove(ptr noundef %6)
  %7 = load ptr, ptr %2, align 8, !tbaa !32
  call void @attr_check_clear(ptr noundef %7)
  %8 = load ptr, ptr %2, align 8, !tbaa !32
  call void @free(ptr noundef %8) #11
  br label %9

9:                                                ; preds = %5, %1
  ret void
}