; Function Attrs: nounwind uwtable
define dso_local void @attr_check_free(ptr noundef %0) local_unnamed_addr #1 {
  %.not = icmp eq ptr %0, null
  br i1 %.not, label %28, label %2

2:                                                ; preds = %1
  %3 = tail call i32 @pthread_mutex_lock(ptr noundef nonnull getelementptr inbounds nuw (i8, ptr @check_vector, i64 24)) #21
  %4 = load i64, ptr @check_vector, align 8, !tbaa !37
  %.not.i = icmp eq i64 %4, 0
  br i1 %.not.i, label %._crit_edge.i, label %.lr.ph.i

.lr.ph.i:                                         ; preds = %2
  %5 = load ptr, ptr getelementptr inbounds nuw (i8, ptr @check_vector, i64 16), align 8, !tbaa !41
  br label %6

6:                                                ; preds = %13, %.lr.ph.i
  %indvars.iv.i = phi i64 [ 0, %.lr.ph.i ], [ %indvars.iv.next.i, %13 ]
  %7 = getelementptr inbounds nuw ptr, ptr %5, i64 %indvars.iv.i
  %8 = load ptr, ptr %7, align 8, !tbaa !42
  %9 = icmp eq ptr %8, %0
  br i1 %9, label %.preheader.i, label %13

.preheader.i:                                     ; preds = %6
  %10 = add i64 %4, -1
  %11 = and i64 %indvars.iv.i, 4294967295
  %12 = icmp ugt i64 %10, %11
  br i1 %12, label %.lr.ph15.i, label %check_vector_remove.exit

13:                                               ; preds = %6
  %indvars.iv.next.i = add nuw i64 %indvars.iv.i, 1
  %exitcond.not.i = icmp eq i64 %indvars.iv.next.i, %4
  br i1 %exitcond.not.i, label %._crit_edge.i, label %6, !llvm.loop !62

._crit_edge.i:                                    ; preds = %13, %2
  tail call void (ptr, i32, ptr, ...) @BUG_fl(ptr noundef nonnull @.str.4, i32 noundef 514, ptr noundef nonnull @.str.20) #22
  unreachable

.lr.ph15.i:                                       ; preds = %.preheader.i, %.lr.ph15.i
  %indvars.iv22.i = phi i64 [ %indvars.iv.next23.i, %.lr.ph15.i ], [ %indvars.iv.i, %.preheader.i ]
  %indvars.iv.next23.i = add nuw nsw i64 %indvars.iv22.i, 1
  %14 = getelementptr inbounds nuw ptr, ptr %5, i64 %indvars.iv.next23.i
  %15 = load ptr, ptr %14, align 8, !tbaa !42
  %16 = getelementptr inbounds nuw ptr, ptr %5, i64 %indvars.iv22.i
  store ptr %15, ptr %16, align 8, !tbaa !42
  %exitcond25.not.i = icmp eq i64 %indvars.iv.next23.i, %10
  br i1 %exitcond25.not.i, label %check_vector_remove.exit, label %.lr.ph15.i, !llvm.loop !63

check_vector_remove.exit:                         ; preds = %.lr.ph15.i, %.preheader.i
  store i64 %10, ptr @check_vector, align 8, !tbaa !37
  %17 = tail call i32 @pthread_mutex_unlock(ptr noundef nonnull getelementptr inbounds nuw (i8, ptr @check_vector, i64 24)) #21
  %18 = getelementptr inbounds nuw i8, ptr %0, i64 8
  %19 = load ptr, ptr %18, align 8, !tbaa !51
  tail call void @free(ptr noundef %19) #21
  %20 = getelementptr inbounds nuw i8, ptr %0, i64 24
  tail call void @llvm.memset.p0.i64(ptr noundef nonnull align 8 dereferenceable(16) %0, i8 0, i64 16, i1 false)
  %21 = load ptr, ptr %20, align 8, !tbaa !55
  tail call void @free(ptr noundef %21) #21
  store ptr null, ptr %20, align 8, !tbaa !55
  %22 = getelementptr inbounds nuw i8, ptr %0, i64 16
  store i32 0, ptr %22, align 8, !tbaa !56
  %23 = getelementptr inbounds nuw i8, ptr %0, i64 32
  %24 = load ptr, ptr %23, align 8, !tbaa !57
  %.not5.i.i = icmp eq ptr %24, null
  br i1 %.not5.i.i, label %attr_check_clear.exit, label %.lr.ph.i.i

.lr.ph.i.i:                                       ; preds = %check_vector_remove.exit, %.lr.ph.i.i
  %25 = phi ptr [ %27, %.lr.ph.i.i ], [ %24, %check_vector_remove.exit ]
  %26 = load ptr, ptr %25, align 8, !tbaa !58
  store ptr %26, ptr %23, align 8, !tbaa !57
  tail call fastcc void @attr_stack_free(ptr noundef nonnull %25)
  %27 = load ptr, ptr %23, align 8, !tbaa !57
  %.not.i.i = icmp eq ptr %27, null
  br i1 %.not.i.i, label %attr_check_clear.exit, label %.lr.ph.i.i, !llvm.loop !61

attr_check_clear.exit:                            ; preds = %.lr.ph.i.i, %check_vector_remove.exit
  tail call void @free(ptr noundef nonnull %0) #21
  br label %28

28:                                               ; preds = %attr_check_clear.exit, %1
  ret void
}